target datalayout = "e-m:e-p270:32:32-p271:32:32-p272:64:64-i64:64-i128:128-f80:128-n8:16:32:64-S128"
target triple = "x86_64-pc-linux-gnu"

%struct.dump_config = type { i64, i64, i64, ptr, ptr, i64, i64, i64, i64, i8, i32, i64, i64, i64, [4096 x i8] }
%struct.RBasic = type { i64, i64 }

; Function Attrs: nounwind sspstrong uwtable
define internal i32 @heap_i(ptr noundef %0, ptr noundef %1, i64 noundef %2, ptr noundef %3) #0 {
  %5 = alloca ptr, align 8
  %6 = alloca ptr, align 8
  %7 = alloca i64, align 8
  %8 = alloca ptr, align 8
  %9 = alloca ptr, align 8
  %10 = alloca i64, align 8
  %11 = alloca ptr, align 8
  store ptr %0, ptr %5, align 8, !tbaa !93
  store ptr %1, ptr %6, align 8, !tbaa !93
  store i64 %2, ptr %7, align 8, !tbaa !6
  store ptr %3, ptr %8, align 8, !tbaa !93
  call void @llvm.lifetime.start.p0(i64 8, ptr %9) #21
  %12 = load ptr, ptr %8, align 8, !tbaa !93
  store ptr %12, ptr %9, align 8, !tbaa !18
  call void @llvm.lifetime.start.p0(i64 8, ptr %10) #21
  %13 = load ptr, ptr %5, align 8, !tbaa !93
  %14 = ptrtoint ptr %13 to i64
  store i64 %14, ptr %10, align 8, !tbaa !6
  br label %15

15:                                               ; preds = %49, %4
  %16 = load i64, ptr %10, align 8, !tbaa !6
  %17 = load ptr, ptr %6, align 8, !tbaa !93
  %18 = ptrtoint ptr %17 to i64
  %19 = icmp ne i64 %16, %18
  br i1 %19, label %20, label %53

20:                                               ; preds = %15
  call void @llvm.lifetime.start.p0(i64 8, ptr %11) #21
  %21 = load i64, ptr %10, align 8, !tbaa !6
  %22 = call ptr @rb_asan_poisoned_object_p(i64 noundef %21)
  store ptr %22, ptr %11, align 8, !tbaa !93
  %23 = load i64, ptr %10, align 8, !tbaa !6
  call void @rb_asan_unpoison_object(i64 noundef %23, i1 noundef zeroext false)
  %24 = load i64, ptr %7, align 8, !tbaa !6
  %25 = load ptr, ptr %9, align 8, !tbaa !18
  %26 = getelementptr inbounds nuw %struct.dump_config, ptr %25, i32 0, i32 7
  store i64 %24, ptr %26, align 8, !tbaa !10
  %27 = load ptr, ptr %9, align 8, !tbaa !18
  %28 = getelementptr inbounds nuw %struct.dump_config, ptr %27, i32 0, i32 9
  %29 = load i8, ptr %28, align 8
  %30 = lshr i8 %29, 1
  %31 = and i8 %30, 1
  %32 = zext i8 %31 to i32
  %33 = icmp ne i32 %32, 0
  br i1 %33, label %40, label %34

34:                                               ; preds = %20
  %35 = load i64, ptr %10, align 8, !tbaa !6
  %36 = inttoptr i64 %35 to ptr
  %37 = getelementptr inbounds nuw %struct.RBasic, ptr %36, i32 0, i32 0
  %38 = load i64, ptr %37, align 8, !tbaa !67
  %39 = icmp ne i64 %38, 0
  br i1 %39, label %40, label %43

40:                                               ; preds = %34, %20
  %41 = load i64, ptr %10, align 8, !tbaa !6
  %42 = load ptr, ptr %9, align 8, !tbaa !18
  call void @dump_object(i64 noundef %41, ptr noundef %42)
  br label %43

43:                                               ; preds = %40, %34
  %44 = load ptr, ptr %11, align 8, !tbaa !93
  %45 = icmp ne ptr %44, null
  br i1 %45, label %46, label %48

46:                                               ; preds = %43
  %47 = load i64, ptr %10, align 8, !tbaa !6
  call void @rb_asan_poison_object(i64 noundef %47)
  br label %48

48:                                               ; preds = %46, %43
  call void @llvm.lifetime.end.p0(i64 8, ptr %11) #21
  br label %49

49:                                               ; preds = %48
  %50 = load i64, ptr %7, align 8, !tbaa !6
  %51 = load i64, ptr %10, align 8, !tbaa !6
  %52 = add i64 %51, %50
  store i64 %52, ptr %10, align 8, !tbaa !6
  br label %15, !llvm.loop !116

53:                                               ; preds = %15
  call void @llvm.lifetime.end.p0(i64 8, ptr %10) #21
  call void @llvm.lifetime.end.p0(i64 8, ptr %9) #21
  ret i32 0
}