; Function Attrs: nounwind sspstrong uwtable
define internal noundef i32 @heap_i(ptr noundef %0, ptr noundef %1, i64 noundef %2, ptr noundef %3) #0 {
  %5 = ptrtoint ptr %1 to i64
  %.not18 = icmp eq ptr %0, %1
  br i1 %.not18, label %._crit_edge, label %.lr.ph

.lr.ph:                                           ; preds = %4
  %6 = ptrtoint ptr %0 to i64
  %7 = getelementptr inbounds nuw i8, ptr %3, i64 56
  %8 = getelementptr inbounds nuw i8, ptr %3, i64 72
  br label %9

9:                                                ; preds = %.lr.ph, %19
  %.019 = phi i64 [ %6, %.lr.ph ], [ %20, %19 ]
  %10 = tail call ptr @rb_asan_poisoned_object_p(i64 noundef %.019) #12
  tail call void @rb_asan_unpoison_object(i64 noundef %.019, i1 noundef zeroext false) #12
  store i64 %2, ptr %7, align 8, !tbaa !6
  %11 = load i8, ptr %8, align 8
  %12 = and i8 %11, 2
  %.not15 = icmp eq i8 %12, 0
  br i1 %.not15, label %13, label %16

13:                                               ; preds = %9
  %14 = inttoptr i64 %.019 to ptr
  %15 = load i64, ptr %14, align 8, !tbaa !17
  %.not16 = icmp eq i64 %15, 0
  br i1 %.not16, label %17, label %16

16:                                               ; preds = %13, %9
  tail call fastcc void @dump_object(i64 noundef %.019, ptr noundef nonnull %3)
  br label %17

17:                                               ; preds = %16, %13
  %.not17 = icmp eq ptr %10, null
  br i1 %.not17, label %19, label %18

18:                                               ; preds = %17
  tail call void @rb_asan_poison_object(i64 noundef %.019) #12
  br label %19

19:                                               ; preds = %18, %17
  %20 = add i64 %.019, %2
  %.not = icmp eq i64 %20, %5
  br i1 %.not, label %._crit_edge, label %9, !llvm.loop !100

._crit_edge:                                      ; preds = %19, %4
  ret i32 0
}